(lp0
Vaai-latn
p1
aVaak-latn
p2
aVaau-latn
p3
aVabt-latn
p4
aVabx-latn
p5
aVaby-latn
p6
aVacd-latn
p7
aVace-latn
p8
aVacf-latn
p9
aVacn-latn
p10
aVacr-latn
p11
aVacu-latn
p12
aVade-latn
p13
aVadh-latn
p14
aVadj-latn
p15
aVaey-latn
p16
aVafr-latn
p17
aVagd-latn
p18
aVagg-latn
p19
aVagm-latn
p20
aVagn-latn
p21
aVagr-latn
p22
aVagt-latn
p23
aVagw-latn
p24
aVahk-latn
p25
aVaia-latn
p26
aVakb-latn
p27
aVake-latn
p28
aVakh-latn
p29
aValj-latn
p30
aValn-latn
p31
aValp-latn
p32
aValq-latn
p33
aValy-latn
p34
aValz-latn
p35
aVame-latn
p36
aVamf-latn
p37
aVamk-latn
p38
aVamm-latn
p39
aVamn-latn
p40
aVamp-latn
p41
aVamr-latn
p42
aVamu-latn
p43
aVamx-latn
p44
aVann-latn
p45
aVanv-latn
p46
aVaoj-latn
p47
aVaom-latn
p48
aVaon-latn
p49
aVaoz-latn
p50
aVape-latn
p51
aVapn-latn
p52
aVapr-latn
p53
aVapu-latn
p54
aVapw-latn
p55
aVapy-latn
p56
aVapz-latn
p57
aVare-latn
p58
aVarl-latn
p59
aVarn-latn
p60
aVaso-latn
p61
aVata-latn
p62
aVatb-latn
p63
aVatd-latn
p64
aVatg-latn
p65
aVatt-latn
p66
aVauc-latn
p67
aVaui-latn
p68
aVauy-latn
p69
aVava-cyrl
p70
aVavt-latn
p71
aVavu-latn
p72
aVawb-latn
p73
aVawi-latn
p74
aVayr-latn
p75
aVazb-latn
p76
aVaze-latn
p77
aVazg-latn
p78
aVazz-latn
p79
aVbam-latn
p80
aVban-latn
p81
aVbao-latn
p82
aVbar-latn
p83
aVbav-latn
p84
aVbba-latn
p85
aVbbb-latn
p86
aVbbc-latn
p87
aVbbr-latn
p88
aVbch-latn
p89
aVbcl-latn
p90
aVbcw-latn
p91
aVbdd-latn
p92
aVbea-latn
p93
aVbef-latn
p94
aVbem-latn
p95
aVbex-latn
p96
aVbfd-latn
p97
aVbgr-latn
p98
aVbgs-latn
p99
aVbgz-latn
p100
aVbhg-latn
p101
aVbhl-latn
p102
aVbig-latn
p103
aVbim-latn
p104
aVbis-latn
p105
aVbiv-latn
p106
aVbjr-latn
p107
aVbkd-latn
p108
aVbkq-latn
p109
aVbku-latn
p110
aVbkv-latn
p111
aVblw-latn
p112
aVblz-latn
p113
aVbmb-latn
p114
aVbmh-latn
p115
aVbmk-latn
p116
aVbmq-latn
p117
aVbmr-latn
p118
aVbmu-latn
p119
aVbnj-latn
p120
aVbnp-latn
p121
aVboa-latn
p122
aVboj-latn
p123
aVbon-latn
p124
aVbpr-latn
p125
aVbps-latn
p126
aVbqc-latn
p127
aVbqp-latn
p128
aVbre-latn
p129
aVbsn-latn
p130
aVbss-latn
p131
aVbtd-latn
p132
aVbth-latn
p133
aVbto-latn
p134
aVbts-latn
p135
aVbtx-latn
p136
aVbud-latn
p137
aVbug-latn
p138
aVbuk-latn
p139
aVbul-cyrl
p140
aVbum-latn
p141
aVbus-latn
p142
aVbvr-latn
p143
aVbvz-latn
p144
aVbwq-latn
p145
aVbwu-latn
p146
aVbxh-latn
p147
aVbyr-latn
p148
aVbyx-latn
p149
aVbzd-latn
p150
aVbzj-latn
p151
aVcaa-latn
p152
aVcac-latn
p153
aVcaf-latn
p154
aVcak-latn
p155
aVcap-latn
p156
aVcar-latn
p157
aVcat-latn
p158
aVcav-latn
p159
aVcax-latn
p160
aVcbc-latn
p161
aVcbi-latn
p162
aVcbk-latn
p163
aVcbr-latn
p164
aVcbs-latn
p165
aVcbt-latn
p166
aVcbu-latn
p167
aVcbv-latn
p168
aVcce-latn
p169
aVceb-latn
p170
aVceg-latn
p171
aVces-latn
p172
aVcfm-latn
p173
aVcha-latn
p174
aVchd-latn
p175
aVche-cyrl
p176
aVchf-latn
p177
aVchk-latn
p178
aVchq-latn
p179
aVchr-latn
p180
aVchu-cyrl
p181
aVcjo-latn
p182
aVcjp-latn
p183
aVcjv-latn
p184
aVcko-latn
p185
aVcle-latn
p186
aVclu-latn
p187
aVcly-latn
p188
aVcme-latn
p189
aVcnh-latn
p190
aVcni-latn
p191
aVcnw-latn
p192
aVcoe-latn
p193
aVcof-latn
p194
aVcok-latn
p195
aVcon-latn
p196
aVcot-latn
p197
aVcpb-latn
p198
aVcpc-latn
p199
aVcpu-latn
p200
aVcrh-cyrl
p201
aVcrn-latn
p202
aVcrq-latn
p203
aVcrs-latn
p204
aVcrt-latn
p205
aVcrx-latn
p206
aVcso-latn
p207
aVcsy-latn
p208
aVcta-latn
p209
aVctd-latn
p210
aVctp-latn
p211
aVctu-latn
p212
aVcui-latn
p213
aVcuk-latn
p214
aVcut-latn
p215
aVcux-latn
p216
aVcwe-latn
p217
aVcwt-latn
p218
aVcya-latn
p219
aVcym-latn
p220
aVczt-latn
p221
aVdad-latn
p222
aVdah-latn
p223
aVdan-latn
p224
aVded-latn
p225
aVdes-latn
p226
aVdeu-latn
p227
aVdgc-latn
p228
aVdgz-latn
p229
aVdig-latn
p230
aVdip-latn
p231
aVdje-latn
p232
aVdjk-latn
p233
aVdjr-latn
p234
aVdnj-latn
p235
aVdob-latn
p236
aVdop-latn
p237
aVdow-latn
p238
aVdtp-latn
p239
aVdts-latn
p240
aVdug-latn
p241
aVdwr-latn
p242
aVdww-latn
p243
aVdyi-latn
p244
aVdyo-latn
p245
aVdyu-latn
p246
aVebk-latn
p247
aVefi-latn
p248
aVeka-latn
p249
aVell-grek
p250
aVemi-latn
p251
aVemp-latn
p252
aVenb-latn
p253
aVeng-latn
p254
aVenm-latn
p255
aVepo-latn
p256
aVese-latn
p257
aVesi-latn
p258
aVest-latn
p259
aVetr-latn
p260
aVeus-latn
p261
aVfaa-latn
p262
aVfai-latn
p263
aVfal-latn
p264
aVfao-latn
p265
aVfij-latn
p266
aVfil-latn
p267
aVfin-latn
p268
aVfon-latn
p269
aVfor-latn
p270
aVfra-latn
p271
aVfry-latn
p272
aVfub-latn
p273
aVgaa-latn
p274
aVgag-latn
p275
aVgah-latn
p276
aVgam-latn
p277
aVgbi-latn
p278
aVgbo-latn
p279
aVgde-latn
p280
aVgdn-latn
p281
aVgdr-latn
p282
aVgeb-latn
p283
aVgej-latn
p284
aVgfk-latn
p285
aVghs-latn
p286
aVgil-latn
p287
aVgiz-latn
p288
aVgkp-latn
p289
aVgla-latn
p290
aVgle-latn
p291
aVglv-latn
p292
aVgmv-latn
p293
aVgnd-latn
p294
aVgng-latn
p295
aVgnn-latn
p296
aVgnw-latn
p297
aVgof-latn
p298
aVgog-latn
p299
aVgrc-grek
p300
aVgso-latn
p301
aVgub-latn
p302
aVguc-latn
p303
aVgud-latn
p304
aVgug-latn
p305
aVguh-latn
p306
aVgui-latn
p307
aVgul-latn
p308
aVgum-latn
p309
aVgun-latn
p310
aVguo-latn
p311
aVguq-latn
p312
aVgur-latn
p313
aVguw-latn
p314
aVgux-latn
p315
aVguz-latn
p316
aVgvc-latn
p317
aVgvf-latn
p318
aVgvl-latn
p319
aVgvn-latn
p320
aVgwi-latn
p321
aVgya-latn
p322
aVgym-latn
p323
aVgyr-latn
p324
aVhae-latn
p325
aVhag-latn
p326
aVhat-latn
p327
aVhaw-latn
p328
aVhay-latn
p329
aVhch-latn
p330
aVheg-latn
p331
aVheh-latn
p332
aVhig-latn
p333
aVhil-latn
p334
aVhin-latn
p335
aVhla-latn
p336
aVhlt-latn
p337
aVhmo-latn
p338
aVhnn-latn
p339
aVhns-latn
p340
aVhot-latn
p341
aVhrv-latn
p342
aVhto-latn
p343
aVhub-latn
p344
aVhui-latn
p345
aVhun-latn
p346
aVhus-latn
p347
aVhuu-latn
p348
aVhuv-latn
p349
aVhvn-latn
p350
aVhwc-latn
p351
aVian-latn
p352
aViba-latn
p353
aVibo-latn
p354
aVifb-latn
p355
aVifk-latn
p356
aVifu-latn
p357
aVify-latn
p358
aVign-latn
p359
aVika-latn
p360
aVilo-latn
p361
aVimo-latn
p362
aVinb-latn
p363
aVind-latn
p364
aVino-latn
p365
aViou-latn
p366
aVipi-latn
p367
aViri-latn
p368
aVirk-latn
p369
aViry-latn
p370
aVisl-latn
p371
aVita-latn
p372
aVitv-latn
p373
aVium-latn
p374
aViws-latn
p375
aVixl-latn
p376
aVizr-latn
p377
aVjae-latn
p378
aVjam-latn
p379
aVjav-latn
p380
aVjbu-latn
p381
aVjic-latn
p382
aVjiv-latn
p383
aVjmc-latn
p384
aVjvn-latn
p385
aVkaa-cyrl
p386
aVkaa-latn
p387
aVkac-latn
p388
aVkal-latn
p389
aVkao-latn
p390
aVkaq-latn
p391
aVkaz-cyrl
p392
aVkbc-latn
p393
aVkbm-latn
p394
aVkbp-latn
p395
aVkbq-latn
p396
aVkbr-latn
p397
aVkdc-latn
p398
aVkde-latn
p399
aVkdi-latn
p400
aVkdj-latn
p401
aVkdl-latn
p402
aVkek-latn
p403
aVken-latn
p404
aVkew-latn
p405
aVkez-latn
p406
aVkgk-latn
p407
aVkgp-latn
p408
aVkhk-latn
p409
aVkhz-latn
p410
aVkik-latn
p411
aVkin-latn
p412
aVkir-cyrl
p413
aVkje-latn
p414
aVkjs-latn
p415
aVkkc-latn
p416
aVkki-latn
p417
aVkkj-latn
p418
aVkkl-latn
p419
aVklt-latn
p420
aVklv-latn
p421
aVkmh-latn
p422
aVkmk-latn
p423
aVkmo-latn
p424
aVkmr-latn
p425
aVkms-latn
p426
aVkmu-latn
p427
aVkne-latn
p428
aVkng-latn
p429
aVknk-latn
p430
aVkno-latn
p431
aVknv-latn
p432
aVkpf-latn
p433
aVkpg-latn
p434
aVkpj-latn
p435
aVkpr-latn
p436
aVkpv-cyrl
p437
aVkpw-latn
p438
aVkpx-latn
p439
aVkpz-latn
p440
aVkqc-latn
p441
aVkqf-latn
p442
aVkqp-latn
p443
aVkqw-latn
p444
aVkrc-cyrl
p445
aVkri-latn
p446
aVkrj-latn
p447
aVksd-latn
p448
aVksf-latn
p449
aVksr-latn
p450
aVktj-latn
p451
aVkto-latn
p452
aVkua-latn
p453
aVkub-latn
p454
aVkud-latn
p455
aVkue-latn
p456
aVkum-cyrl
p457
aVkup-latn
p458
aVkus-latn
p459
aVkvn-latn
p460
aVkwd-latn
p461
aVkwf-latn
p462
aVkwi-latn
p463
aVkwj-latn
p464
aVkyc-latn
p465
aVkyf-latn
p466
aVkyg-latn
p467
aVkyq-latn
p468
aVkyz-latn
p469
aVkze-latn
p470
aVkzf-latn
p471
aVlac-latn
p472
aVlaj-latn
p473
aVlas-latn
p474
aVlat-latn
p475
aVlbb-latn
p476
aVlbk-latn
p477
aVlcm-latn
p478
aVldi-latn
p479
aVlee-latn
p480
aVleh-latn
p481
aVlem-latn
p482
aVleu-latn
p483
aVlew-latn
p484
aVlex-latn
p485
aVlia-latn
p486
aVlid-latn
p487
aVlin-latn
p488
aVlip-latn
p489
aVlit-latn
p490
aVljp-latn
p491
aVloz-latn
p492
aVlsi-latn
p493
aVlsm-latn
p494
aVluo-latn
p495
aVlus-latn
p496
aVlwo-latn
p497
aVmaa-latn
p498
aVmad-latn
p499
aVmaj-latn
p500
aVmak-latn
p501
aVmal-latn
p502
aVmam-latn
p503
aVmaq-latn
p504
aVmau-latn
p505
aVmav-latn
p506
aVmaw-latn
p507
aVmaz-latn
p508
aVmbb-latn
p509
aVmbc-latn
p510
aVmbf-latn
p511
aVmbh-latn
p512
aVmbj-latn
p513
aVmbl-latn
p514
aVmbs-latn
p515
aVmbt-latn
p516
aVmca-latn
p517
aVmcb-latn
p518
aVmcd-latn
p519
aVmcf-latn
p520
aVmck-latn
p521
aVmco-latn
p522
aVmcp-latn
p523
aVmcq-latn
p524
aVmcu-latn
p525
aVmee-latn
p526
aVmej-latn
p527
aVmek-latn
p528
aVmen-latn
p529
aVmeq-latn
p530
aVmeu-latn
p531
aVmfe-latn
p532
aVmfh-latn
p533
aVmfq-latn
p534
aVmfy-latn
p535
aVmfz-latn
p536
aVmgh-latn
p537
aVmhi-latn
p538
aVmhl-latn
p539
aVmhx-latn
p540
aVmhy-latn
p541
aVmib-latn
p542
aVmic-latn
p543
aVmie-latn
p544
aVmif-latn
p545
aVmig-latn
p546
aVmih-latn
p547
aVmil-latn
p548
aVmin-latn
p549
aVmio-latn
p550
aVmiq-latn
p551
aVmit-latn
p552
aVmiz-latn
p553
aVmjc-latn
p554
aVmkn-latn
p555
aVmks-latn
p556
aVmlh-latn
p557
aVmlp-latn
p558
aVmmo-latn
p559
aVmmx-latn
p560
aVmna-latn
p561
aVmnb-latn
p562
aVmnh-latn
p563
aVmnk-latn
p564
aVmnx-latn
p565
aVmoc-latn
p566
aVmog-latn
p567
aVmop-latn
p568
aVmos-latn
p569
aVmox-latn
p570
aVmpm-latn
p571
aVmps-latn
p572
aVmpt-latn
p573
aVmpx-latn
p574
aVmqb-latn
p575
aVmqj-latn
p576
aVmqy-latn
p577
aVmri-latn
p578
aVmrw-latn
p579
aVmsa-latn
p580
aVmsb-latn
p581
aVmsk-latn
p582
aVmsm-latn
p583
aVmsy-latn
p584
aVmta-latn
p585
aVmti-latn
p586
aVmtj-latn
p587
aVmto-latn
p588
aVmtp-latn
p589
aVmuh-latn
p590
aVmur-latn
p591
aVmuy-latn
p592
aVmva-latn
p593
aVmvn-latn
p594
aVmvp-latn
p595
aVmwq-latn
p596
aVmwv-latn
p597
aVmww-latn
p598
aVmxb-latn
p599
aVmxp-latn
p600
aVmxq-latn
p601
aVmxt-latn
p602
aVmyb-latn
p603
aVmyk-latn
p604
aVmyu-latn
p605
aVmyv-cyrl
p606
aVmyw-latn
p607
aVmyx-latn
p608
aVmyy-latn
p609
aVmzh-latn
p610
aVmzk-latn
p611
aVmzl-latn
p612
aVmzm-latn
p613
aVmzw-latn
p614
aVmzz-latn
p615
aVnab-latn
p616
aVnaf-latn
p617
aVnak-latn
p618
aVnas-latn
p619
aVnbl-latn
p620
aVnbq-latn
p621
aVnca-latn
p622
aVnch-latn
p623
aVncj-latn
p624
aVncl-latn
p625
aVncu-latn
p626
aVnde-latn
p627
aVndo-latn
p628
aVndp-latn
p629
aVnds-latn
p630
aVneb-latn
p631
aVnfr-latn
p632
aVngu-latn
p633
aVnhe-latn
p634
aVnhg-latn
p635
aVnhi-latn
p636
aVnhr-latn
p637
aVnhu-latn
p638
aVnhw-latn
p639
aVnhy-latn
p640
aVnia-latn
p641
aVnif-latn
p642
aVnii-latn
p643
aVnij-latn
p644
aVnim-latn
p645
aVnin-latn
p646
aVnjm-latn
p647
aVnko-latn
p648
aVnlc-latn
p649
aVnld-latn
p650
aVnnb-latn
p651
aVnno-latn
p652
aVnoa-latn
p653
aVnob-latn
p654
aVnop-latn
p655
aVnot-latn
p656
aVnou-latn
p657
aVnpl-latn
p658
aVnpy-latn
p659
aVnsn-latn
p660
aVnso-latn
p661
aVnss-latn
p662
aVntp-latn
p663
aVntr-latn
p664
aVnus-latn
p665
aVnvm-latn
p666
aVnwb-latn
p667
aVnwi-latn
p668
aVnya-latn
p669
aVnyf-latn
p670
aVnyn-latn
p671
aVnyo-latn
p672
aVnyy-latn
p673
aVobo-latn
p674
aVoji-latn
p675
aVokv-latn
p676
aVomw-latn
p677
aVong-latn
p678
aVood-latn
p679
aVopm-latn
p680
aVoss-cyrl
p681
aVote-latn
p682
aVotm-latn
p683
aVotn-latn
p684
aVots-latn
p685
aVpab-latn
p686
aVpad-latn
p687
aVpag-latn
p688
aVpah-latn
p689
aVpam-latn
p690
aVpap-latn
p691
aVpbb-latn
p692
aVpbc-latn
p693
aVpbi-latn
p694
aVpbl-latn
p695
aVpcm-latn
p696
aVpdt-latn
p697
aVpib-latn
p698
aVpio-latn
p699
aVpir-latn
p700
aVpis-latn
p701
aVplg-latn
p702
aVplt-latn
p703
aVplw-latn
p704
aVpmf-latn
p705
aVpne-latn
p706
aVpoe-latn
p707
aVpoh-latn
p708
aVpoi-latn
p709
aVpol-latn
p710
aVpor-latn
p711
aVppk-latn
p712
aVprf-latn
p713
aVpri-latn
p714
aVprk-latn
p715
aVpse-latn
p716
aVptp-latn
p717
aVptu-latn
p718
aVpua-latn
p719
aVpwg-latn
p720
aVqub-latn
p721
aVquc-latn
p722
aVqug-latn
p723
aVquh-latn
p724
aVqul-latn
p725
aVqup-latn
p726
aVquw-latn
p727
aVquy-latn
p728
aVquz-latn
p729
aVqvc-latn
p730
aVqve-latn
p731
aVqvh-latn
p732
aVqvi-latn
p733
aVqvm-latn
p734
aVqvn-latn
p735
aVqvo-latn
p736
aVqvs-latn
p737
aVqvw-latn
p738
aVqvz-latn
p739
aVqwh-latn
p740
aVqxh-latn
p741
aVqxn-latn
p742
aVqxo-latn
p743
aVqxr-latn
p744
aVrai-latn
p745
aVrim-latn
p746
aVrkb-latn
p747
aVrmo-latn
p748
aVrmy-latn
p749
aVron-latn
p750
aVroo-latn
p751
aVrro-latn
p752
aVrun-latn
p753
aVrus-cyrl
p754
aVrwo-latn
p755
aVsab-latn
p756
aVsag-latn
p757
aVsas-latn
p758
aVsba-latn
p759
aVsbl-latn
p760
aVsda-latn
p761
aVsey-latn
p762
aVsgb-latn
p763
aVsgz-latn
p764
aVshk-latn
p765
aVshp-latn
p766
aVshu-latn
p767
aVsig-latn
p768
aVsil-latn
p769
aVsja-latn
p770
aVsld-latn
p771
aVsll-latn
p772
aVslv-latn
p773
aVsme-latn
p774
aVsmk-latn
p775
aVsml-latn
p776
aVsmo-latn
p777
aVsna-latn
p778
aVsnc-latn
p779
aVsnn-latn
p780
aVsnp-latn
p781
aVsnw-latn
p782
aVsny-latn
p783
aVsom-latn
p784
aVsoq-latn
p785
aVsot-latn
p786
aVsoy-latn
p787
aVspa-latn
p788
aVspl-latn
p789
aVspp-latn
p790
aVsps-latn
p791
aVspy-latn
p792
aVsqi-latn
p793
aVsri-latn
p794
aVsrm-latn
p795
aVsrn-latn
p796
aVsrp-latn
p797
aVsrq-latn
p798
aVssd-latn
p799
aVssg-latn
p800
aVssw-latn
p801
aVssx-latn
p802
aVstn-latn
p803
aVsua-latn
p804
aVsue-latn
p805
aVsuk-latn
p806
aVsum-latn
p807
aVsun-latn
p808
aVsur-latn
p809
aVsus-latn
p810
aVswe-latn
p811
aVswg-latn
p812
aVswh-latn
p813
aVswk-latn
p814
aVsxb-latn
p815
aVsxn-latn
p816
aVszb-latn
p817
aVtab-cyrl
p818
aVtac-latn
p819
aVtar-latn
p820
aVtav-latn
p821
aVtaw-latn
p822
aVtbc-latn
p823
aVtbg-latn
p824
aVtbl-latn
p825
aVtbo-latn
p826
aVtby-latn
p827
aVtbz-latn
p828
aVtca-latn
p829
aVtcc-latn
p830
aVtcs-latn
p831
aVtcz-latn
p832
aVtdt-latn
p833
aVtee-latn
p834
aVteo-latn
p835
aVter-latn
p836
aVtfr-latn
p837
aVtgl-latn
p838
aVtgp-latn
p839
aVthk-latn
p840
aVtih-latn
p841
aVtik-latn
p842
aVtim-latn
p843
aVtku-latn
p844
aVtlb-latn
p845
aVtlf-latn
p846
aVtlh-latn
p847
aVtna-latn
p848
aVtnn-latn
p849
aVtob-latn
p850
aVtoc-latn
p851
aVtoh-latn
p852
aVtoj-latn
p853
aVtoo-latn
p854
aVtop-latn
p855
aVtos-latn
p856
aVtpa-latn
p857
aVtpi-latn
p858
aVtpm-latn
p859
aVtpp-latn
p860
aVtpt-latn
p861
aVtpz-latn
p862
aVtrc-latn
p863
aVtrn-latn
p864
aVtrq-latn
p865
aVtsn-latn
p866
aVtso-latn
p867
aVtsz-latn
p868
aVttc-latn
p869
aVtte-latn
p870
aVtuc-latn
p871
aVtuf-latn
p872
aVtui-latn
p873
aVtuo-latn
p874
aVtur-latn
p875
aVtwi-latn
p876
aVtwu-latn
p877
aVtxu-latn
p878
aVtzh-latn
p879
aVtzj-latn
p880
aVtzo-latn
p881
aVubr-latn
p882
aVuig-latn
p883
aVukr-cyrl
p884
aVupv-latn
p885
aVura-latn
p886
aVurb-latn
p887
aVusa-latn
p888
aVusp-latn
p889
aVuvl-latn
p890
aVuzb-cyrl
p891
aVvag-latn
p892
aVviv-latn
p893
aVwaj-latn
p894
aVwal-latn
p895
aVwap-latn
p896
aVwar-latn
p897
aVway-latn
p898
aVwbm-latn
p899
aVwbp-latn
p900
aVwca-latn
p901
aVwed-latn
p902
aVwer-latn
p903
aVwhk-latn
p904
aVwiu-latn
p905
aVwmw-latn
p906
aVwnc-latn
p907
aVwnu-latn
p908
aVwob-latn
p909
aVwol-latn
p910
aVwos-latn
p911
aVwrs-latn
p912
aVwsk-latn
p913
aVwuv-latn
p914
aVwwa-latn
p915
aVxav-latn
p916
aVxbr-latn
p917
aVxed-latn
p918
aVxho-latn
p919
aVxla-latn
p920
aVxon-latn
p921
aVxrb-latn
p922
aVxsi-latn
p923
aVxsm-latn
p924
aVxsu-latn
p925
aVxtd-latn
p926
aVxtm-latn
p927
aVyaa-latn
p928
aVyad-latn
p929
aVyal-latn
p930
aVyam-latn
p931
aVyan-latn
p932
aVyaq-latn
p933
aVyby-latn
p934
aVycn-latn
p935
aVyle-latn
p936
aVyli-latn
p937
aVyml-latn
p938
aVyon-latn
p939
aVyor-latn
p940
aVyrb-latn
p941
aVyss-latn
p942
aVyua-latn
p943
aVyuj-latn
p944
aVyut-latn
p945
aVyuw-latn
p946
aVyuz-latn
p947
aVyva-latn
p948
aVzab-latn
p949
aVzac-latn
p950
aVzad-latn
p951
aVzai-latn
p952
aVzam-latn
p953
aVzao-latn
p954
aVzar-latn
p955
aVzas-latn
p956
aVzat-latn
p957
aVzaw-latn
p958
aVzca-latn
p959
aVzia-latn
p960
aVzom-latn
p961
aVzos-latn
p962
aVzpc-latn
p963
aVzpi-latn
p964
aVzpl-latn
p965
aVzpm-latn
p966
aVzpo-latn
p967
aVzpq-latn
p968
aVzpu-latn
p969
aVzpv-latn
p970
aVzpz-latn
p971
aVzsm-latn
p972
aVzsr-latn
p973
aVztq-latn
p974
aVzul-latn
p975
a.